target datalayout = "e-m:e-p270:32:32-p271:32:32-p272:64:64-i64:64-i128:128-f80:128-n8:16:32:64-S128"
target triple = "x86_64-pc-linux-gnu"

%class.aiVector3t = type { float, float, float }
%struct.aiMesh = type { i32, i32, i32, ptr, ptr, ptr, ptr, [8 x ptr], [8 x ptr], [8 x i32], ptr, i32, ptr, i32, %struct.aiString, i32, ptr, i32, %struct.aiAABB, ptr }
%struct.aiString = type { i32, [1024 x i8] }
%struct.aiAABB = type { %class.aiVector3t, %class.aiVector3t }

; Function Attrs: mustprogress nounwind uwtable
define linkonce_odr hidden noundef zeroext i1 @_ZNK6aiMesh15HasVertexColorsEj(ptr noundef nonnull align 8 dereferenceable(1320) %0, i32 noundef %1) #2 comdat align 2 {
  %3 = alloca i1, align 1
  %4 = alloca ptr, align 8
  %5 = alloca i32, align 4
  store ptr %0, ptr %4, align 8
  store i32 %1, ptr %5, align 4
  %6 = load ptr, ptr %4, align 8
  %7 = load i32, ptr %5, align 4
  %8 = icmp uge i32 %7, 8
  br i1 %8, label %9, label %10

9:                                                ; preds = %2
  store i1 false, ptr %3, align 1
  br label %23

10:                                               ; preds = %2
  %11 = getelementptr inbounds nuw %struct.aiMesh, ptr %6, i32 0, i32 7
  %12 = load i32, ptr %5, align 4
  %13 = zext i32 %12 to i64
  %14 = getelementptr inbounds nuw [8 x ptr], ptr %11, i64 0, i64 %13
  %15 = load ptr, ptr %14, align 8
  %16 = icmp ne ptr %15, null
  br i1 %16, label %17, label %21

17:                                               ; preds = %10
  %18 = getelementptr inbounds nuw %struct.aiMesh, ptr %6, i32 0, i32 1
  %19 = load i32, ptr %18, align 4
  %20 = icmp ugt i32 %19, 0
  br label %21

21:                                               ; preds = %17, %10
  %22 = phi i1 [ false, %10 ], [ %20, %17 ]
  store i1 %22, ptr %3, align 1
  br label %23

23:                                               ; preds = %21, %9
  %24 = load i1, ptr %3, align 1
  ret i1 %24
}

; Function Attrs: mustprogress nounwind uwtable
define linkonce_odr hidden noundef zeroext i1 @_ZNK6aiMesh16HasTextureCoordsEj(ptr noundef nonnull align 8 dereferenceable(1320) %0, i32 noundef %1) #2 comdat align 2 {
  %3 = alloca i1, align 1
  %4 = alloca ptr, align 8
  %5 = alloca i32, align 4
  store ptr %0, ptr %4, align 8
  store i32 %1, ptr %5, align 4
  %6 = load ptr, ptr %4, align 8
  %7 = load i32, ptr %5, align 4
  %8 = icmp uge i32 %7, 8
  br i1 %8, label %9, label %10

9:                                                ; preds = %2
  store i1 false, ptr %3, align 1
  br label %23

10:                                               ; preds = %2
  %11 = getelementptr inbounds nuw %struct.aiMesh, ptr %6, i32 0, i32 8
  %12 = load i32, ptr %5, align 4
  %13 = zext i32 %12 to i64
  %14 = getelementptr inbounds nuw [8 x ptr], ptr %11, i64 0, i64 %13
  %15 = load ptr, ptr %14, align 8
  %16 = icmp ne ptr %15, null
  br i1 %16, label %17, label %21

17:                                               ; preds = %10
  %18 = getelementptr inbounds nuw %struct.aiMesh, ptr %6, i32 0, i32 1
  %19 = load i32, ptr %18, align 4
  %20 = icmp ugt i32 %19, 0
  br label %21

21:                                               ; preds = %17, %10
  %22 = phi i1 [ false, %10 ], [ %20, %17 ]
  store i1 %22, ptr %3, align 1
  br label %23

23:                                               ; preds = %21, %9
  %24 = load i1, ptr %3, align 1
  ret i1 %24
}

; Function Attrs: mustprogress nounwind uwtable
define linkonce_odr hidden noundef zeroext i1 @_ZNK6aiMesh24HasTangentsAndBitangentsEv(ptr noundef nonnull align 8 dereferenceable(1320) %0) #2 comdat align 2 {
  %2 = alloca ptr, align 8
  store ptr %0, ptr %2, align 8
  %3 = load ptr, ptr %2, align 8
  %4 = getelementptr inbounds nuw %struct.aiMesh, ptr %3, i32 0, i32 5
  %5 = load ptr, ptr %4, align 8
  %6 = icmp ne ptr %5, null
  br i1 %6, label %7, label %15

7:                                                ; preds = %1
  %8 = getelementptr inbounds nuw %struct.aiMesh, ptr %3, i32 0, i32 6
  %9 = load ptr, ptr %8, align 8
  %10 = icmp ne ptr %9, null
  br i1 %10, label %11, label %15

11:                                               ; preds = %7
  %12 = getelementptr inbounds nuw %struct.aiMesh, ptr %3, i32 0, i32 1
  %13 = load i32, ptr %12, align 4
  %14 = icmp ugt i32 %13, 0
  br label %15

15:                                               ; preds = %11, %7, %1
  %16 = phi i1 [ false, %7 ], [ false, %1 ], [ %14, %11 ]
  ret i1 %16
}

; Function Attrs: mustprogress nounwind uwtable
define linkonce_odr hidden noundef zeroext i1 @_ZNK6aiMesh10HasNormalsEv(ptr noundef nonnull align 8 dereferenceable(1320) %0) #2 comdat align 2 {
  %2 = alloca ptr, align 8
  store ptr %0, ptr %2, align 8
  %3 = load ptr, ptr %2, align 8
  %4 = getelementptr inbounds nuw %struct.aiMesh, ptr %3, i32 0, i32 4
  %5 = load ptr, ptr %4, align 8
  %6 = icmp ne ptr %5, null
  br i1 %6, label %7, label %11

7:                                                ; preds = %1
  %8 = getelementptr inbounds nuw %struct.aiMesh, ptr %3, i32 0, i32 1
  %9 = load i32, ptr %8, align 4
  %10 = icmp ugt i32 %9, 0
  br label %11

11:                                               ; preds = %7, %1
  %12 = phi i1 [ false, %1 ], [ %10, %7 ]
  ret i1 %12
}

; Function Attrs: mustprogress uwtable
define hidden noundef i32 @_ZN6Assimp20GetMeshVFormatUniqueEPK6aiMesh(ptr noundef %0) #0 {
  %2 = alloca ptr, align 8
  %3 = alloca i32, align 4
  %4 = alloca i32, align 4
  store ptr %0, ptr %2, align 8
  call void @llvm.lifetime.start.p0(i64 4, ptr %3) #18
  store i32 1, ptr %3, align 4
  %5 = load ptr, ptr %2, align 8
  %6 = call noundef zeroext i1 @_ZNK6aiMesh10HasNormalsEv(ptr noundef nonnull align 8 dereferenceable(1320) %5)
  br i1 %6, label %7, label %10

7:                                                ; preds = %1
  %8 = load i32, ptr %3, align 4
  %9 = or i32 %8, 2
  store i32 %9, ptr %3, align 4
  br label %10

10:                                               ; preds = %7, %1
  %11 = load ptr, ptr %2, align 8
  %12 = call noundef zeroext i1 @_ZNK6aiMesh24HasTangentsAndBitangentsEv(ptr noundef nonnull align 8 dereferenceable(1320) %11)
  br i1 %12, label %13, label %16

13:                                               ; preds = %10
  %14 = load i32, ptr %3, align 4
  %15 = or i32 %14, 4
  store i32 %15, ptr %3, align 4
  br label %16

16:                                               ; preds = %13, %10
  call void @llvm.lifetime.start.p0(i64 4, ptr %4) #18
  store i32 0, ptr %4, align 4
  br label %17

17:                                               ; preds = %38, %16
  %18 = load ptr, ptr %2, align 8
  %19 = load i32, ptr %4, align 4
  %20 = call noundef zeroext i1 @_ZNK6aiMesh16HasTextureCoordsEj(ptr noundef nonnull align 8 dereferenceable(1320) %18, i32 noundef %19)
  br i1 %20, label %21, label %41

21:                                               ; preds = %17
  %22 = load i32, ptr %4, align 4
  %23 = shl i32 256, %22
  %24 = load i32, ptr %3, align 4
  %25 = or i32 %24, %23
  store i32 %25, ptr %3, align 4
  %26 = load ptr, ptr %2, align 8
  %27 = getelementptr inbounds nuw %struct.aiMesh, ptr %26, i32 0, i32 9
  %28 = load i32, ptr %4, align 4
  %29 = zext i32 %28 to i64
  %30 = getelementptr inbounds nuw [8 x i32], ptr %27, i64 0, i64 %29
  %31 = load i32, ptr %30, align 4
  %32 = icmp eq i32 3, %31
  br i1 %32, label %33, label %38

33:                                               ; preds = %21
  %34 = load i32, ptr %4, align 4
  %35 = shl i32 65536, %34
  %36 = load i32, ptr %3, align 4
  %37 = or i32 %36, %35
  store i32 %37, ptr %3, align 4
  br label %38

38:                                               ; preds = %33, %21
  %39 = load i32, ptr %4, align 4
  %40 = add i32 %39, 1
  store i32 %40, ptr %4, align 4
  br label %17, !llvm.loop !11

41:                                               ; preds = %17
  store i32 0, ptr %4, align 4
  br label %42

42:                                               ; preds = %46, %41
  %43 = load ptr, ptr %2, align 8
  %44 = load i32, ptr %4, align 4
  %45 = call noundef zeroext i1 @_ZNK6aiMesh15HasVertexColorsEj(ptr noundef nonnull align 8 dereferenceable(1320) %43, i32 noundef %44)
  br i1 %45, label %46, label %52

46:                                               ; preds = %42
  %47 = load i32, ptr %4, align 4
  %48 = add i32 %47, 1
  store i32 %48, ptr %4, align 4
  %49 = shl i32 16777216, %47
  %50 = load i32, ptr %3, align 4
  %51 = or i32 %50, %49
  store i32 %51, ptr %3, align 4
  br label %42, !llvm.loop !12

52:                                               ; preds = %42
  %53 = load i32, ptr %3, align 4
  call void @llvm.lifetime.end.p0(i64 4, ptr %4) #18
  call void @llvm.lifetime.end.p0(i64 4, ptr %3) #18
  ret i32 %53
}