; Function Attrs: mustprogress nofree norecurse nosync nounwind willreturn memory(argmem: read) uwtable
define hidden noundef i32 @_ZN6Assimp20GetMeshVFormatUniqueEPK6aiMesh(ptr noundef readonly captures(none) %0) local_unnamed_addr #7 {
_ZNK6aiMesh24HasTangentsAndBitangentsEv.exit.thread:
  %1 = getelementptr inbounds nuw i8, ptr %0, i64 24
  %2 = load ptr, ptr %1, align 8
  %.not.i = icmp ne ptr %2, null
  %3 = getelementptr inbounds nuw i8, ptr %0, i64 4
  %4 = load i32, ptr %3, align 4
  %.fr = freeze i32 %4
  %5 = icmp ne i32 %.fr, 0
  %6 = and i1 %.not.i, %5
  %spec.select = select i1 %6, i32 3, i32 1
  %7 = getelementptr inbounds nuw i8, ptr %0, i64 32
  %8 = load ptr, ptr %7, align 8
  %.not.i19 = icmp eq ptr %8, null
  %9 = getelementptr inbounds nuw i8, ptr %0, i64 40
  %10 = load ptr, ptr %9, align 8
  %.not1.i = icmp eq ptr %10, null
  %or.cond.i = select i1 %.not.i19, i1 true, i1 %.not1.i
  %11 = or disjoint i32 %spec.select, 4
  %spec.select25 = select i1 %5, i32 %11, i32 1
  %12 = select i1 %or.cond.i, i32 %spec.select, i32 %spec.select25
  %13 = getelementptr inbounds nuw i8, ptr %0, i64 112
  %14 = getelementptr inbounds nuw i8, ptr %0, i64 176
  br i1 %5, label %_ZNK6aiMesh24HasTangentsAndBitangentsEv.exit.thread.split, label %_ZNK6aiMesh15HasVertexColorsEj.exit.thread

_ZNK6aiMesh16HasTextureCoordsEj.exit.preheader:   ; preds = %18, %_ZNK6aiMesh24HasTangentsAndBitangentsEv.exit.thread.split
  %.us-phi = phi i32 [ %.3, %18 ], [ %.226, %_ZNK6aiMesh24HasTangentsAndBitangentsEv.exit.thread.split ]
  %15 = getelementptr inbounds nuw i8, ptr %0, i64 48
  br label %_ZNK6aiMesh15HasVertexColorsEj.exit

_ZNK6aiMesh24HasTangentsAndBitangentsEv.exit.thread.split: ; preds = %_ZNK6aiMesh24HasTangentsAndBitangentsEv.exit.thread, %18
  %indvars.iv = phi i64 [ %indvars.iv.next, %18 ], [ 0, %_ZNK6aiMesh24HasTangentsAndBitangentsEv.exit.thread ]
  %.226 = phi i32 [ %.3, %18 ], [ %12, %_ZNK6aiMesh24HasTangentsAndBitangentsEv.exit.thread ]
  %16 = getelementptr inbounds nuw [8 x ptr], ptr %13, i64 0, i64 %indvars.iv
  %17 = load ptr, ptr %16, align 8
  %.not.i20.not = icmp eq ptr %17, null
  br i1 %.not.i20.not, label %_ZNK6aiMesh16HasTextureCoordsEj.exit.preheader, label %18

18:                                               ; preds = %_ZNK6aiMesh24HasTangentsAndBitangentsEv.exit.thread.split
  %19 = getelementptr inbounds nuw [8 x i32], ptr %14, i64 0, i64 %indvars.iv
  %20 = load i32, ptr %19, align 4
  %21 = icmp eq i32 %20, 3
  %.3.v.v = select i1 %21, i32 65792, i32 256
  %22 = trunc nuw nsw i64 %indvars.iv to i32
  %.3.v = shl nuw nsw i32 %.3.v.v, %22
  %.3 = or i32 %.3.v, %.226
  %indvars.iv.next = add nuw nsw i64 %indvars.iv, 1
  %exitcond = icmp eq i64 %indvars.iv.next, 8
  br i1 %exitcond, label %_ZNK6aiMesh16HasTextureCoordsEj.exit.preheader, label %_ZNK6aiMesh24HasTangentsAndBitangentsEv.exit.thread.split, !llvm.loop !15

_ZNK6aiMesh15HasVertexColorsEj.exit:              ; preds = %_ZNK6aiMesh16HasTextureCoordsEj.exit.preheader, %_ZNK6aiMesh16HasTextureCoordsEj.exit
  %indvars.iv33 = phi i64 [ %indvars.iv.next34, %_ZNK6aiMesh16HasTextureCoordsEj.exit ], [ 0, %_ZNK6aiMesh16HasTextureCoordsEj.exit.preheader ]
  %.428 = phi i32 [ %27, %_ZNK6aiMesh16HasTextureCoordsEj.exit ], [ %.us-phi, %_ZNK6aiMesh16HasTextureCoordsEj.exit.preheader ]
  %23 = getelementptr inbounds nuw [8 x ptr], ptr %15, i64 0, i64 %indvars.iv33
  %24 = load ptr, ptr %23, align 8
  %.not.i21.not = icmp eq ptr %24, null
  br i1 %.not.i21.not, label %_ZNK6aiMesh15HasVertexColorsEj.exit.thread, label %_ZNK6aiMesh16HasTextureCoordsEj.exit

_ZNK6aiMesh16HasTextureCoordsEj.exit:             ; preds = %_ZNK6aiMesh15HasVertexColorsEj.exit
  %indvars.iv.next34 = add nuw nsw i64 %indvars.iv33, 1
  %25 = trunc nuw nsw i64 %indvars.iv33 to i32
  %26 = shl nuw i32 16777216, %25
  %27 = or i32 %26, %.428
  %exitcond36 = icmp eq i64 %indvars.iv.next34, 8
  br i1 %exitcond36, label %_ZNK6aiMesh15HasVertexColorsEj.exit.thread, label %_ZNK6aiMesh15HasVertexColorsEj.exit, !llvm.loop !16

_ZNK6aiMesh15HasVertexColorsEj.exit.thread:       ; preds = %_ZNK6aiMesh15HasVertexColorsEj.exit, %_ZNK6aiMesh16HasTextureCoordsEj.exit, %_ZNK6aiMesh24HasTangentsAndBitangentsEv.exit.thread
  %.us-phi31 = phi i32 [ %12, %_ZNK6aiMesh24HasTangentsAndBitangentsEv.exit.thread ], [ %27, %_ZNK6aiMesh16HasTextureCoordsEj.exit ], [ %.428, %_ZNK6aiMesh15HasVertexColorsEj.exit ]
  ret i32 %.us-phi31
}